; ModuleID = '63/1604.c'
source_filename = "63/1604.c"
target datalayout = "e-m:e-p270:32:32-p271:32:32-p272:64:64-i64:64-f80:128-n8:16:32:64-S128"
target triple = "x86_64-pc-linux-gnu"

@.str = private unnamed_addr constant [6 x i8] c"%d %d\00", align 1
@.str.1 = private unnamed_addr constant [3 x i8] c"%d\00", align 1
@.str.2 = private unnamed_addr constant [4 x i8] c" %d\00", align 1
@.str.3 = private unnamed_addr constant [4 x i8] c"%d \00", align 1
@.str.4 = private unnamed_addr constant [4 x i8] c"%d\0A\00", align 1

; Function Attrs: noinline nounwind uwtable
define dso_local i32 @main() #0 {
  %1 = alloca i32, align 4
  %2 = alloca i32, align 4
  %3 = alloca i32, align 4
  %4 = alloca i8*, align 8
  %5 = alloca i64, align 8
  %6 = alloca i64, align 8
  %7 = alloca i32, align 4
  %8 = alloca i32, align 4
  %9 = alloca i32, align 4
  %10 = alloca i32, align 4
  %11 = alloca i32, align 4
  %12 = alloca i64, align 8
  %13 = alloca i64, align 8
  %14 = alloca i32, align 4
  store i32 0, i32* %1, align 4
  %15 = call i32 (i8*, ...) @__isoc99_scanf(i8* getelementptr inbounds ([6 x i8], [6 x i8]* @.str, i64 0, i64 0), i32* %2, i32* %3)
  %16 = load i32, i32* %2, align 4
  %17 = zext i32 %16 to i64
  %18 = load i32, i32* %3, align 4
  %19 = zext i32 %18 to i64
  %20 = call i8* @llvm.stacksave()
  store i8* %20, i8** %4, align 8
  %21 = mul nuw i64 %17, %19
  %22 = alloca i32, i64 %21, align 16
  store i64 %17, i64* %5, align 8
  store i64 %19, i64* %6, align 8
  store i32 0, i32* %7, align 4
  br label %23

23:                                               ; preds = %58, %0
  %24 = load i32, i32* %7, align 4
  %25 = load i32, i32* %2, align 4
  %26 = icmp slt i32 %24, %25
  br i1 %26, label %27, label %61

27:                                               ; preds = %23
  store i32 0, i32* %8, align 4
  br label %28

28:                                               ; preds = %54, %27
  %29 = load i32, i32* %8, align 4
  %30 = load i32, i32* %3, align 4
  %31 = icmp slt i32 %29, %30
  br i1 %31, label %32, label %57

32:                                               ; preds = %28
  %33 = load i32, i32* %8, align 4
  %34 = icmp eq i32 %33, 0
  br i1 %34, label %35, label %44

35:                                               ; preds = %32
  %36 = load i32, i32* %7, align 4
  %37 = sext i32 %36 to i64
  %38 = mul nsw i64 %37, %19
  %39 = getelementptr inbounds i32, i32* %22, i64 %38
  %40 = load i32, i32* %8, align 4
  %41 = sext i32 %40 to i64
  %42 = getelementptr inbounds i32, i32* %39, i64 %41
  %43 = call i32 (i8*, ...) @__isoc99_scanf(i8* getelementptr inbounds ([3 x i8], [3 x i8]* @.str.1, i64 0, i64 0), i32* %42)
  br label %53

44:                                               ; preds = %32
  %45 = load i32, i32* %7, align 4
  %46 = sext i32 %45 to i64
  %47 = mul nsw i64 %46, %19
  %48 = getelementptr inbounds i32, i32* %22, i64 %47
  %49 = load i32, i32* %8, align 4
  %50 = sext i32 %49 to i64
  %51 = getelementptr inbounds i32, i32* %48, i64 %50
  %52 = call i32 (i8*, ...) @__isoc99_scanf(i8* getelementptr inbounds ([4 x i8], [4 x i8]* @.str.2, i64 0, i64 0), i32* %51)
  br label %53

53:                                               ; preds = %44, %35
  br label %54

54:                                               ; preds = %53
  %55 = load i32, i32* %8, align 4
  %56 = add nsw i32 %55, 1
  store i32 %56, i32* %8, align 4
  br label %28

57:                                               ; preds = %28
  br label %58

58:                                               ; preds = %57
  %59 = load i32, i32* %7, align 4
  %60 = add nsw i32 %59, 1
  store i32 %60, i32* %7, align 4
  br label %23

61:                                               ; preds = %23
  %62 = call i32 (i8*, ...) @__isoc99_scanf(i8* getelementptr inbounds ([6 x i8], [6 x i8]* @.str, i64 0, i64 0), i32* %10, i32* %11)
  %63 = load i32, i32* %10, align 4
  %64 = zext i32 %63 to i64
  %65 = load i32, i32* %11, align 4
  %66 = zext i32 %65 to i64
  %67 = mul nuw i64 %64, %66
  %68 = alloca i32, i64 %67, align 16
  store i64 %64, i64* %12, align 8
  store i64 %66, i64* %13, align 8
  store i32 0, i32* %7, align 4
  br label %69

69:                                               ; preds = %104, %61
  %70 = load i32, i32* %7, align 4
  %71 = load i32, i32* %10, align 4
  %72 = icmp slt i32 %70, %71
  br i1 %72, label %73, label %107

73:                                               ; preds = %69
  store i32 0, i32* %8, align 4
  br label %74

74:                                               ; preds = %100, %73
  %75 = load i32, i32* %8, align 4
  %76 = load i32, i32* %11, align 4
  %77 = icmp slt i32 %75, %76
  br i1 %77, label %78, label %103

78:                                               ; preds = %74
  %79 = load i32, i32* %8, align 4
  %80 = icmp eq i32 %79, 0
  br i1 %80, label %81, label %90

81:                                               ; preds = %78
  %82 = load i32, i32* %7, align 4
  %83 = sext i32 %82 to i64
  %84 = mul nsw i64 %83, %66
  %85 = getelementptr inbounds i32, i32* %68, i64 %84
  %86 = load i32, i32* %8, align 4
  %87 = sext i32 %86 to i64
  %88 = getelementptr inbounds i32, i32* %85, i64 %87
  %89 = call i32 (i8*, ...) @__isoc99_scanf(i8* getelementptr inbounds ([3 x i8], [3 x i8]* @.str.1, i64 0, i64 0), i32* %88)
  br label %99

90:                                               ; preds = %78
  %91 = load i32, i32* %7, align 4
  %92 = sext i32 %91 to i64
  %93 = mul nsw i64 %92, %66
  %94 = getelementptr inbounds i32, i32* %68, i64 %93
  %95 = load i32, i32* %8, align 4
  %96 = sext i32 %95 to i64
  %97 = getelementptr inbounds i32, i32* %94, i64 %96
  %98 = call i32 (i8*, ...) @__isoc99_scanf(i8* getelementptr inbounds ([4 x i8], [4 x i8]* @.str.2, i64 0, i64 0), i32* %97)
  br label %99

99:                                               ; preds = %90, %81
  br label %100

100:                                              ; preds = %99
  %101 = load i32, i32* %8, align 4
  %102 = add nsw i32 %101, 1
  store i32 %102, i32* %8, align 4
  br label %74

103:                                              ; preds = %74
  br label %104

104:                                              ; preds = %103
  %105 = load i32, i32* %7, align 4
  %106 = add nsw i32 %105, 1
  store i32 %106, i32* %7, align 4
  br label %69

107:                                              ; preds = %69
  store i32 0, i32* %7, align 4
  br label %108

108:                                              ; preds = %161, %107
  %109 = load i32, i32* %7, align 4
  %110 = load i32, i32* %2, align 4
  %111 = icmp slt i32 %109, %110
  br i1 %111, label %112, label %164

112:                                              ; preds = %108
  store i32 0, i32* %8, align 4
  br label %113

113:                                              ; preds = %157, %112
  %114 = load i32, i32* %8, align 4
  %115 = load i32, i32* %11, align 4
  %116 = icmp slt i32 %114, %115
  br i1 %116, label %117, label %160

117:                                              ; preds = %113
  store i32 0, i32* %14, align 4
  store i32 0, i32* %9, align 4
  br label %118

118:                                              ; preds = %142, %117
  %119 = load i32, i32* %9, align 4
  %120 = load i32, i32* %3, align 4
  %121 = icmp slt i32 %119, %120
  br i1 %121, label %122, label %145

122:                                              ; preds = %118
  %123 = load i32, i32* %7, align 4
  %124 = sext i32 %123 to i64
  %125 = mul nsw i64 %124, %19
  %126 = getelementptr inbounds i32, i32* %22, i64 %125
  %127 = load i32, i32* %9, align 4
  %128 = sext i32 %127 to i64
  %129 = getelementptr inbounds i32, i32* %126, i64 %128
  %130 = load i32, i32* %129, align 4
  %131 = load i32, i32* %9, align 4
  %132 = sext i32 %131 to i64
  %133 = mul nsw i64 %132, %66
  %134 = getelementptr inbounds i32, i32* %68, i64 %133
  %135 = load i32, i32* %8, align 4
  %136 = sext i32 %135 to i64
  %137 = getelementptr inbounds i32, i32* %134, i64 %136
  %138 = load i32, i32* %137, align 4
  %139 = mul nsw i32 %130, %138
  %140 = load i32, i32* %14, align 4
  %141 = add nsw i32 %140, %139
  store i32 %141, i32* %14, align 4
  br label %142

142:                                              ; preds = %122
  %143 = load i32, i32* %9, align 4
  %144 = add nsw i32 %143, 1
  store i32 %144, i32* %9, align 4
  br label %118

145:                                              ; preds = %118
  %146 = load i32, i32* %8, align 4
  %147 = load i32, i32* %11, align 4
  %148 = sub nsw i32 %147, 1
  %149 = icmp ne i32 %146, %148
  br i1 %149, label %150, label %153

150:                                              ; preds = %145
  %151 = load i32, i32* %14, align 4
  %152 = call i32 (i8*, ...) @printf(i8* getelementptr inbounds ([4 x i8], [4 x i8]* @.str.3, i64 0, i64 0), i32 %151)
  br label %156

153:                                              ; preds = %145
  %154 = load i32, i32* %14, align 4
  %155 = call i32 (i8*, ...) @printf(i8* getelementptr inbounds ([4 x i8], [4 x i8]* @.str.4, i64 0, i64 0), i32 %154)
  br label %156

156:                                              ; preds = %153, %150
  br label %157

157:                                              ; preds = %156
  %158 = load i32, i32* %8, align 4
  %159 = add nsw i32 %158, 1
  store i32 %159, i32* %8, align 4
  br label %113

160:                                              ; preds = %113
  br label %161

161:                                              ; preds = %160
  %162 = load i32, i32* %7, align 4
  %163 = add nsw i32 %162, 1
  store i32 %163, i32* %7, align 4
  br label %108

164:                                              ; preds = %108
  %165 = load i8*, i8** %4, align 8
  call void @llvm.stackrestore(i8* %165)
  %166 = load i32, i32* %1, align 4
  ret i32 %166
}

declare dso_local i32 @__isoc99_scanf(i8*, ...) #1

; Function Attrs: nounwind
declare i8* @llvm.stacksave() #2

declare dso_local i32 @printf(i8*, ...) #1

; Function Attrs: nounwind
declare void @llvm.stackrestore(i8*) #2


!llvm.module.flags = !{!0}
!llvm.ident = !{!1}

!0 = !{i32 1, !"wchar_size", i32 4}
!1 = !{!"clang version 10.0.0-4ubuntu1 "}
